target datalayout = "e-m:e-p270:32:32-p271:32:32-p272:64:64-i64:64-i128:128-f80:128-n8:16:32:64-S128"
target triple = "x86_64-pc-linux-gnu"

%struct.Abc_RRMan_t_ = type { ptr, i32, i32, ptr, ptr, ptr, ptr, ptr, ptr, ptr, ptr, ptr, ptr, ptr, i32, i32, i32, i32, i64, i64, i64, i64, i64 }
%struct.Vec_Int_t_ = type { i32, i32, ptr }
%struct.Abc_Obj_t_ = type { ptr, ptr, i32, i32, %struct.Vec_Int_t_, %struct.Vec_Int_t_, %union.anon, %union.anon.0 }
%union.anon = type { ptr }
%union.anon.0 = type { ptr }
%struct.timespec = type { i64, i64 }

; Function Attrs: inlinehint nounwind uwtable
define internal i64 @Abc_Clock() #2 {
  %1 = alloca i64, align 8
  %2 = alloca %struct.timespec, align 8
  %3 = alloca i32, align 4
  %4 = alloca i64, align 8
  call void @llvm.lifetime.start.p0(i64 16, ptr %2) #10
  %5 = call i32 @clock_gettime(i32 noundef 1, ptr noundef %2) #10
  %6 = icmp slt i32 %5, 0
  br i1 %6, label %7, label %8

7:                                                ; preds = %0
  store i64 -1, ptr %1, align 8
  store i32 1, ptr %3, align 4
  br label %19

8:                                                ; preds = %0
  call void @llvm.lifetime.start.p0(i64 8, ptr %4) #10
  %9 = getelementptr inbounds nuw %struct.timespec, ptr %2, i32 0, i32 0
  %10 = load i64, ptr %9, align 8, !tbaa !117
  %11 = mul nsw i64 %10, 1000000
  store i64 %11, ptr %4, align 8, !tbaa !10
  %12 = getelementptr inbounds nuw %struct.timespec, ptr %2, i32 0, i32 1
  %13 = load i64, ptr %12, align 8, !tbaa !119
  %14 = mul nsw i64 %13, 1000000
  %15 = sdiv i64 %14, 1000000000
  %16 = load i64, ptr %4, align 8, !tbaa !10
  %17 = add nsw i64 %16, %15
  store i64 %17, ptr %4, align 8, !tbaa !10
  %18 = load i64, ptr %4, align 8, !tbaa !10
  store i64 %18, ptr %1, align 8
  store i32 1, ptr %3, align 4
  call void @llvm.lifetime.end.p0(i64 8, ptr %4) #10
  br label %19

19:                                               ; preds = %8, %7
  call void @llvm.lifetime.end.p0(i64 16, ptr %2) #10
  %20 = load i64, ptr %1, align 8
  ret i64 %20
}

; Function Attrs: nounwind uwtable
define internal i32 @Abc_NtkRRProve(ptr noundef %0) #0 {
  %2 = alloca i32, align 4
  %3 = alloca ptr, align 8
  %4 = alloca ptr, align 8
  %5 = alloca i32, align 4
  %6 = alloca i64, align 8
  %7 = alloca i32, align 4
  store ptr %0, ptr %3, align 8, !tbaa !12
  call void @llvm.lifetime.start.p0(i64 8, ptr %4) #10
  call void @llvm.lifetime.start.p0(i64 4, ptr %5) #10
  call void @llvm.lifetime.start.p0(i64 8, ptr %6) #10
  %8 = load ptr, ptr %3, align 8, !tbaa !12
  %9 = getelementptr inbounds nuw %struct.Abc_RRMan_t_, ptr %8, i32 0, i32 11
  %10 = load ptr, ptr %9, align 8, !tbaa !76
  %11 = call ptr @Abc_NtkDup(ptr noundef %10)
  store ptr %11, ptr %4, align 8, !tbaa !3
  %12 = load ptr, ptr %4, align 8, !tbaa !3
  %13 = load ptr, ptr %3, align 8, !tbaa !12
  %14 = getelementptr inbounds nuw %struct.Abc_RRMan_t_, ptr %13, i32 0, i32 3
  %15 = load ptr, ptr %14, align 8, !tbaa !44
  %16 = getelementptr inbounds nuw %struct.Abc_Obj_t_, ptr %15, i32 0, i32 7
  %17 = load ptr, ptr %16, align 8, !tbaa !57
  %18 = getelementptr inbounds nuw %struct.Abc_Obj_t_, ptr %17, i32 0, i32 7
  %19 = load ptr, ptr %18, align 8, !tbaa !57
  %20 = load ptr, ptr %3, align 8, !tbaa !12
  %21 = getelementptr inbounds nuw %struct.Abc_RRMan_t_, ptr %20, i32 0, i32 4
  %22 = load ptr, ptr %21, align 8, !tbaa !45
  %23 = getelementptr inbounds nuw %struct.Abc_Obj_t_, ptr %22, i32 0, i32 7
  %24 = load ptr, ptr %23, align 8, !tbaa !57
  %25 = getelementptr inbounds nuw %struct.Abc_Obj_t_, ptr %24, i32 0, i32 7
  %26 = load ptr, ptr %25, align 8, !tbaa !57
  %27 = load ptr, ptr %3, align 8, !tbaa !12
  %28 = getelementptr inbounds nuw %struct.Abc_RRMan_t_, ptr %27, i32 0, i32 5
  %29 = load ptr, ptr %28, align 8, !tbaa !46
  %30 = icmp ne ptr %29, null
  br i1 %30, label %31, label %39

31:                                               ; preds = %1
  %32 = load ptr, ptr %3, align 8, !tbaa !12
  %33 = getelementptr inbounds nuw %struct.Abc_RRMan_t_, ptr %32, i32 0, i32 5
  %34 = load ptr, ptr %33, align 8, !tbaa !46
  %35 = getelementptr inbounds nuw %struct.Abc_Obj_t_, ptr %34, i32 0, i32 7
  %36 = load ptr, ptr %35, align 8, !tbaa !57
  %37 = getelementptr inbounds nuw %struct.Abc_Obj_t_, ptr %36, i32 0, i32 7
  %38 = load ptr, ptr %37, align 8, !tbaa !57
  br label %40

39:                                               ; preds = %1
  br label %40

40:                                               ; preds = %39, %31
  %41 = phi ptr [ %38, %31 ], [ null, %39 ]
  %42 = call i32 @Abc_NtkRRUpdate(ptr noundef %12, ptr noundef %19, ptr noundef %26, ptr noundef %41)
  %43 = load ptr, ptr %4, align 8, !tbaa !3
  %44 = call i32 @Abc_NtkIsDfsOrdered(ptr noundef %43)
  %45 = icmp ne i32 %44, 0
  br i1 %45, label %48, label %46

46:                                               ; preds = %40
  %47 = load ptr, ptr %4, align 8, !tbaa !3
  call void @Abc_NtkReassignIds(ptr noundef %47)
  br label %48

48:                                               ; preds = %46, %40
  %49 = load ptr, ptr %3, align 8, !tbaa !12
  %50 = getelementptr inbounds nuw %struct.Abc_RRMan_t_, ptr %49, i32 0, i32 11
  %51 = load ptr, ptr %50, align 8, !tbaa !76
  %52 = load ptr, ptr %4, align 8, !tbaa !3
  %53 = call ptr @Abc_NtkMiter(ptr noundef %51, ptr noundef %52, i32 noundef 1, i32 noundef 0, i32 noundef 0, i32 noundef 0)
  %54 = load ptr, ptr %3, align 8, !tbaa !12
  %55 = getelementptr inbounds nuw %struct.Abc_RRMan_t_, ptr %54, i32 0, i32 12
  store ptr %53, ptr %55, align 8, !tbaa !77
  %56 = load ptr, ptr %4, align 8, !tbaa !3
  call void @Abc_NtkDelete(ptr noundef %56)
  %57 = call i64 @Abc_Clock()
  store i64 %57, ptr %6, align 8, !tbaa !10
  %58 = load ptr, ptr %3, align 8, !tbaa !12
  %59 = getelementptr inbounds nuw %struct.Abc_RRMan_t_, ptr %58, i32 0, i32 12
  %60 = load ptr, ptr %3, align 8, !tbaa !12
  %61 = getelementptr inbounds nuw %struct.Abc_RRMan_t_, ptr %60, i32 0, i32 13
  %62 = load ptr, ptr %61, align 8, !tbaa !84
  %63 = call i32 @Abc_NtkMiterProve(ptr noundef %59, ptr noundef %62)
  store i32 %63, ptr %5, align 4, !tbaa !8
  %64 = call i64 @Abc_Clock()
  %65 = load i64, ptr %6, align 8, !tbaa !10
  %66 = sub nsw i64 %64, %65
  %67 = load ptr, ptr %3, align 8, !tbaa !12
  %68 = getelementptr inbounds nuw %struct.Abc_RRMan_t_, ptr %67, i32 0, i32 20
  %69 = load i64, ptr %68, align 8, !tbaa !85
  %70 = add nsw i64 %69, %66
  store i64 %70, ptr %68, align 8, !tbaa !85
  %71 = load i32, ptr %5, align 4, !tbaa !8
  %72 = icmp eq i32 %71, 1
  br i1 %72, label %73, label %74

73:                                               ; preds = %48
  store i32 1, ptr %2, align 4
  store i32 1, ptr %7, align 4
  br label %75

74:                                               ; preds = %48
  store i32 0, ptr %2, align 4
  store i32 1, ptr %7, align 4
  br label %75

75:                                               ; preds = %74, %73
  call void @llvm.lifetime.end.p0(i64 8, ptr %6) #10
  call void @llvm.lifetime.end.p0(i64 4, ptr %5) #10
  call void @llvm.lifetime.end.p0(i64 8, ptr %4) #10
  %76 = load i32, ptr %2, align 4
  ret i32 %76
}