; Function Attrs: nounwind uwtable
define internal fastcc range(i32 0, 2) i32 @Abc_NtkRRProve(ptr noundef initializes((88, 96)) %0) unnamed_addr #0 {
  %2 = alloca %struct.timespec, align 8
  %3 = alloca %struct.timespec, align 8
  %4 = getelementptr inbounds nuw i8, ptr %0, i64 80
  %5 = load ptr, ptr %4, align 8, !tbaa !61
  %6 = tail call ptr @Abc_NtkDup(ptr noundef %5) #16
  %7 = getelementptr inbounds nuw i8, ptr %0, i64 16
  %8 = load ptr, ptr %7, align 8, !tbaa !63
  %9 = getelementptr inbounds nuw i8, ptr %8, i64 64
  %10 = load ptr, ptr %9, align 8, !tbaa !47
  %11 = getelementptr inbounds nuw i8, ptr %10, i64 64
  %12 = load ptr, ptr %11, align 8, !tbaa !47
  %13 = getelementptr inbounds nuw i8, ptr %0, i64 24
  %14 = load ptr, ptr %13, align 8, !tbaa !64
  %15 = getelementptr inbounds nuw i8, ptr %14, i64 64
  %16 = load ptr, ptr %15, align 8, !tbaa !47
  %17 = getelementptr inbounds nuw i8, ptr %16, i64 64
  %18 = load ptr, ptr %17, align 8, !tbaa !47
  %19 = getelementptr inbounds nuw i8, ptr %0, i64 32
  %20 = load ptr, ptr %19, align 8, !tbaa !65
  %.not = icmp eq ptr %20, null
  br i1 %.not, label %26, label %21

21:                                               ; preds = %1
  %22 = getelementptr inbounds nuw i8, ptr %20, i64 64
  %23 = load ptr, ptr %22, align 8, !tbaa !47
  %24 = getelementptr inbounds nuw i8, ptr %23, i64 64
  %25 = load ptr, ptr %24, align 8, !tbaa !47
  br label %26

26:                                               ; preds = %1, %21
  %27 = phi ptr [ %25, %21 ], [ null, %1 ]
  tail call fastcc void @Abc_NtkRRUpdate(ptr noundef %6, ptr noundef %12, ptr noundef %18, ptr noundef %27)
  %28 = tail call i32 @Abc_NtkIsDfsOrdered(ptr noundef %6) #16
  %.not18 = icmp eq i32 %28, 0
  br i1 %.not18, label %29, label %30

29:                                               ; preds = %26
  tail call void @Abc_NtkReassignIds(ptr noundef %6) #16
  br label %30

30:                                               ; preds = %29, %26
  %31 = load ptr, ptr %4, align 8, !tbaa !61
  %32 = tail call ptr @Abc_NtkMiter(ptr noundef %31, ptr noundef %6, i32 noundef 1, i32 noundef 0, i32 noundef 0, i32 noundef 0) #16
  %33 = getelementptr inbounds nuw i8, ptr %0, i64 88
  store ptr %32, ptr %33, align 8, !tbaa !62
  tail call void @Abc_NtkDelete(ptr noundef %6) #16
  call void @llvm.lifetime.start.p0(i64 16, ptr nonnull %3) #16
  %34 = call i32 @clock_gettime(i32 noundef 1, ptr noundef nonnull %3) #16
  %35 = icmp slt i32 %34, 0
  br i1 %35, label %Abc_Clock.exit, label %36

36:                                               ; preds = %30
  %37 = load i64, ptr %3, align 8, !tbaa !3
  %.neg21 = mul i64 %37, -1000000
  %38 = getelementptr inbounds nuw i8, ptr %3, i64 8
  %39 = load i64, ptr %38, align 8, !tbaa !8
  %.neg = sdiv i64 %39, -1000
  %.neg22 = add i64 %.neg, %.neg21
  br label %Abc_Clock.exit

Abc_Clock.exit:                                   ; preds = %30, %36
  %.0.i.neg = phi i64 [ %.neg22, %36 ], [ 1, %30 ]
  call void @llvm.lifetime.end.p0(i64 16, ptr nonnull %3) #16
  %40 = getelementptr inbounds nuw i8, ptr %0, i64 96
  %41 = load ptr, ptr %40, align 8, !tbaa !25
  %42 = call i32 @Abc_NtkMiterProve(ptr noundef nonnull %33, ptr noundef %41) #16
  call void @llvm.lifetime.start.p0(i64 16, ptr nonnull %2) #16
  %43 = call i32 @clock_gettime(i32 noundef 1, ptr noundef nonnull %2) #16
  %44 = icmp slt i32 %43, 0
  br i1 %44, label %Abc_Clock.exit20, label %45

45:                                               ; preds = %Abc_Clock.exit
  %46 = load i64, ptr %2, align 8, !tbaa !3
  %47 = mul nsw i64 %46, 1000000
  %48 = getelementptr inbounds nuw i8, ptr %2, i64 8
  %49 = load i64, ptr %48, align 8, !tbaa !8
  %50 = sdiv i64 %49, 1000
  %51 = add nsw i64 %50, %47
  br label %Abc_Clock.exit20

Abc_Clock.exit20:                                 ; preds = %Abc_Clock.exit, %45
  %.0.i19 = phi i64 [ %51, %45 ], [ -1, %Abc_Clock.exit ]
  call void @llvm.lifetime.end.p0(i64 16, ptr nonnull %2) #16
  %52 = add i64 %.0.i19, %.0.i.neg
  %53 = getelementptr inbounds nuw i8, ptr %0, i64 136
  %54 = load i64, ptr %53, align 8, !tbaa !78
  %55 = add nsw i64 %52, %54
  store i64 %55, ptr %53, align 8, !tbaa !78
  %56 = icmp eq i32 %42, 1
  %. = zext i1 %56 to i32
  ret i32 %.
}